; Function Attrs: nounwind uwtable
define ptr @HMAC_CTX_new() local_unnamed_addr #0 {
  %1 = tail call noalias ptr @CRYPTO_zalloc(i64 noundef 40, ptr noundef nonnull @.str, i32 noundef 164) #7
  %.not = icmp eq ptr %1, null
  br i1 %.not, label %13, label %2

2:                                                ; preds = %0
  %3 = tail call i32 @HMAC_CTX_reset(ptr noundef nonnull %1)
  %.not6 = icmp eq i32 %3, 0
  br i1 %.not6, label %HMAC_CTX_free.exit, label %13

HMAC_CTX_free.exit:                               ; preds = %2
  %4 = getelementptr inbounds nuw i8, ptr %1, i64 16
  %5 = load ptr, ptr %4, align 8, !tbaa !17
  %6 = tail call i32 @EVP_MD_CTX_reset(ptr noundef %5) #7
  %7 = getelementptr inbounds nuw i8, ptr %1, i64 24
  %8 = load ptr, ptr %7, align 8, !tbaa !19
  %9 = tail call i32 @EVP_MD_CTX_reset(ptr noundef %8) #7
  %10 = getelementptr inbounds nuw i8, ptr %1, i64 8
  %11 = load ptr, ptr %10, align 8, !tbaa !11
  %12 = tail call i32 @EVP_MD_CTX_reset(ptr noundef %11) #7
  store ptr null, ptr %1, align 8, !tbaa !3
  tail call void @EVP_MD_CTX_free(ptr noundef %5) #7
  tail call void @EVP_MD_CTX_free(ptr noundef %8) #7
  tail call void @EVP_MD_CTX_free(ptr noundef %11) #7
  tail call void @CRYPTO_free(ptr noundef nonnull %1, ptr noundef nonnull @.str, i32 noundef 194) #7
  br label %13

13:                                               ; preds = %0, %2, %HMAC_CTX_free.exit
  %.0 = phi ptr [ null, %HMAC_CTX_free.exit ], [ %1, %2 ], [ null, %0 ]
  ret ptr %.0
}